; Function Attrs: mustprogress nounwind uwtable
define hidden void @_ZN19OpenColorIO_v2_4dev9LogOpDataD2Ev(ptr noundef nonnull align 8 dereferenceable(252) %this) unnamed_addr #7 align 2 personality ptr @__gxx_personality_v0 {
entry:
  store ptr getelementptr inbounds ({ [13 x ptr] }, ptr @_ZTVN19OpenColorIO_v2_4dev9LogOpDataE, i64 0, i32 0, i64 2), ptr %this, align 8
  %m_blueParams = getelementptr inbounds i8, ptr %this, i64 216
  %0 = load ptr, ptr %m_blueParams, align 8
  %tobool.not.i.i.i = icmp eq ptr %0, null
  br i1 %tobool.not.i.i.i, label %_ZNSt6vectorIdSaIdEED2Ev.exit, label %if.then.i.i.i

if.then.i.i.i:                                    ; preds = %entry
  tail call void @_ZdlPv(ptr noundef nonnull %0) #21
  br label %_ZNSt6vectorIdSaIdEED2Ev.exit

_ZNSt6vectorIdSaIdEED2Ev.exit:                    ; preds = %entry, %if.then.i.i.i
  %m_greenParams = getelementptr inbounds i8, ptr %this, i64 192
  %1 = load ptr, ptr %m_greenParams, align 8
  %tobool.not.i.i.i1 = icmp eq ptr %1, null
  br i1 %tobool.not.i.i.i1, label %_ZNSt6vectorIdSaIdEED2Ev.exit3, label %if.then.i.i.i2

if.then.i.i.i2:                                   ; preds = %_ZNSt6vectorIdSaIdEED2Ev.exit
  tail call void @_ZdlPv(ptr noundef nonnull %1) #21
  br label %_ZNSt6vectorIdSaIdEED2Ev.exit3

_ZNSt6vectorIdSaIdEED2Ev.exit3:                   ; preds = %_ZNSt6vectorIdSaIdEED2Ev.exit, %if.then.i.i.i2
  %m_redParams = getelementptr inbounds i8, ptr %this, i64 168
  %2 = load ptr, ptr %m_redParams, align 8
  %tobool.not.i.i.i4 = icmp eq ptr %2, null
  br i1 %tobool.not.i.i.i4, label %_ZNSt6vectorIdSaIdEED2Ev.exit6, label %if.then.i.i.i5

if.then.i.i.i5:                                   ; preds = %_ZNSt6vectorIdSaIdEED2Ev.exit3
  tail call void @_ZdlPv(ptr noundef nonnull %2) #21
  br label %_ZNSt6vectorIdSaIdEED2Ev.exit6

_ZNSt6vectorIdSaIdEED2Ev.exit6:                   ; preds = %_ZNSt6vectorIdSaIdEED2Ev.exit3, %if.then.i.i.i5
  store ptr getelementptr inbounds ({ [13 x ptr] }, ptr @_ZTVN19OpenColorIO_v2_4dev6OpDataE, i64 0, i32 0, i64 2), ptr %this, align 8
  %m_metadata.i = getelementptr inbounds i8, ptr %this, i64 48
  tail call void @_ZN19OpenColorIO_v2_4dev18FormatMetadataImplD1Ev(ptr noundef nonnull align 8 dereferenceable(120) %m_metadata.i) #22
  ret void
}